target datalayout = "e-m:e-p270:32:32-p271:32:32-p272:64:64-i64:64-i128:128-f80:128-n8:16:32:64-S128"
target triple = "x86_64-pc-linux-gnu"

%struct._psqlSettings = type { ptr, i32, ptr, i8, ptr, ptr, %struct.printQueryOpt, ptr, ptr, ptr, i8, i8, i32, i32, ptr, ptr, i8, [4 x ptr], i8, i32, ptr, i8, i32, ptr, ptr, i64, i64, i8, ptr, ptr, ptr, i8, i8, i8, i8, i8, i8, i8, i32, i32, i32, i32, i32, i32, i32, i32, ptr, ptr, ptr, i32, i8, i32 }
%struct.printQueryOpt = type { %struct.printTableOpt, ptr, ptr, ptr, i8, ptr, i32 }
%struct.printTableOpt = type { i32, i16, i32, i32, i16, i16, i32, i8, i8, i8, i8, i64, ptr, %struct.separator, %struct.separator, [2 x i8], i8, ptr, i32, i32, i32, i32, i32, i32 }
%struct.separator = type { ptr, i8 }
%struct.pgsql_thing_t = type { ptr, ptr, ptr, ptr, ptr, i32 }

@pset = external global %struct._psqlSettings, align 8
@create_or_drop_command_generator.list_index = internal global i32 0, align 4
@create_or_drop_command_generator.string_length = internal global i32 0, align 4

; Function Attrs: nounwind uwtable
define internal ptr @pg_strdup_keyword_case(ptr noundef %0, ptr noundef %1) #0 {
  %3 = alloca ptr, align 8
  %4 = alloca ptr, align 8
  %5 = alloca ptr, align 8
  %6 = alloca ptr, align 8
  %7 = alloca i8, align 1
  store ptr %0, ptr %3, align 8
  store ptr %1, ptr %4, align 8
  call void @llvm.lifetime.start.p0(i64 8, ptr %5) #8
  call void @llvm.lifetime.start.p0(i64 8, ptr %6) #8
  call void @llvm.lifetime.start.p0(i64 1, ptr %7) #8
  %8 = load ptr, ptr %4, align 8
  %9 = getelementptr inbounds i8, ptr %8, i64 0
  %10 = load i8, ptr %9, align 1
  store i8 %10, ptr %7, align 1
  %11 = load ptr, ptr %3, align 8
  %12 = call ptr @pg_strdup(ptr noundef %11)
  store ptr %12, ptr %5, align 8
  %13 = load i32, ptr getelementptr inbounds nuw (%struct._psqlSettings, ptr @pset, i32 0, i32 44), align 8
  %14 = icmp eq i32 %13, 3
  br i1 %14, label %46, label %15

15:                                               ; preds = %2
  %16 = load i32, ptr getelementptr inbounds nuw (%struct._psqlSettings, ptr @pset, i32 0, i32 44), align 8
  %17 = icmp eq i32 %16, 1
  br i1 %17, label %21, label %18

18:                                               ; preds = %15
  %19 = load i32, ptr getelementptr inbounds nuw (%struct._psqlSettings, ptr @pset, i32 0, i32 44), align 8
  %20 = icmp eq i32 %19, 0
  br i1 %20, label %21, label %32

21:                                               ; preds = %18, %15
  %22 = call ptr @__ctype_b_loc() #10
  %23 = load ptr, ptr %22, align 8
  %24 = load i8, ptr %7, align 1
  %25 = zext i8 %24 to i32
  %26 = sext i32 %25 to i64
  %27 = getelementptr inbounds i16, ptr %23, i64 %26
  %28 = load i16, ptr %27, align 2
  %29 = zext i16 %28 to i32
  %30 = and i32 %29, 512
  %31 = icmp ne i32 %30, 0
  br i1 %31, label %46, label %32

32:                                               ; preds = %21, %18
  %33 = load i32, ptr getelementptr inbounds nuw (%struct._psqlSettings, ptr @pset, i32 0, i32 44), align 8
  %34 = icmp eq i32 %33, 1
  br i1 %34, label %35, label %61

35:                                               ; preds = %32
  %36 = call ptr @__ctype_b_loc() #10
  %37 = load ptr, ptr %36, align 8
  %38 = load i8, ptr %7, align 1
  %39 = zext i8 %38 to i32
  %40 = sext i32 %39 to i64
  %41 = getelementptr inbounds i16, ptr %37, i64 %40
  %42 = load i16, ptr %41, align 2
  %43 = zext i16 %42 to i32
  %44 = and i32 %43, 1024
  %45 = icmp ne i32 %44, 0
  br i1 %45, label %61, label %46

46:                                               ; preds = %35, %21, %2
  %47 = load ptr, ptr %5, align 8
  store ptr %47, ptr %6, align 8
  br label %48

48:                                               ; preds = %57, %46
  %49 = load ptr, ptr %6, align 8
  %50 = load i8, ptr %49, align 1
  %51 = icmp ne i8 %50, 0
  br i1 %51, label %52, label %60

52:                                               ; preds = %48
  %53 = load ptr, ptr %6, align 8
  %54 = load i8, ptr %53, align 1
  %55 = call zeroext i8 @pg_tolower(i8 noundef zeroext %54)
  %56 = load ptr, ptr %6, align 8
  store i8 %55, ptr %56, align 1
  br label %57

57:                                               ; preds = %52
  %58 = load ptr, ptr %6, align 8
  %59 = getelementptr inbounds nuw i8, ptr %58, i32 1
  store ptr %59, ptr %6, align 8
  br label %48, !llvm.loop !22

60:                                               ; preds = %48
  br label %76

61:                                               ; preds = %35, %32
  %62 = load ptr, ptr %5, align 8
  store ptr %62, ptr %6, align 8
  br label %63

63:                                               ; preds = %72, %61
  %64 = load ptr, ptr %6, align 8
  %65 = load i8, ptr %64, align 1
  %66 = icmp ne i8 %65, 0
  br i1 %66, label %67, label %75

67:                                               ; preds = %63
  %68 = load ptr, ptr %6, align 8
  %69 = load i8, ptr %68, align 1
  %70 = call zeroext i8 @pg_toupper(i8 noundef zeroext %69)
  %71 = load ptr, ptr %6, align 8
  store i8 %70, ptr %71, align 1
  br label %72

72:                                               ; preds = %67
  %73 = load ptr, ptr %6, align 8
  %74 = getelementptr inbounds nuw i8, ptr %73, i32 1
  store ptr %74, ptr %6, align 8
  br label %63, !llvm.loop !23

75:                                               ; preds = %63
  br label %76

76:                                               ; preds = %75, %60
  %77 = load ptr, ptr %5, align 8
  call void @llvm.lifetime.end.p0(i64 1, ptr %7) #8
  call void @llvm.lifetime.end.p0(i64 8, ptr %6) #8
  call void @llvm.lifetime.end.p0(i64 8, ptr %5) #8
  ret ptr %77
}

; Function Attrs: nounwind uwtable
define internal ptr @create_or_drop_command_generator(ptr noundef %0, i32 noundef %1, i32 noundef %2) #0 {
  %4 = alloca ptr, align 8
  %5 = alloca ptr, align 8
  %6 = alloca i32, align 4
  %7 = alloca i32, align 4
  %8 = alloca ptr, align 8
  %9 = alloca i32, align 4
  store ptr %0, ptr %5, align 8
  store i32 %1, ptr %6, align 4
  store i32 %2, ptr %7, align 4
  call void @llvm.lifetime.start.p0(i64 8, ptr %8) #8
  %10 = load i32, ptr %6, align 4
  %11 = icmp eq i32 %10, 0
  br i1 %11, label %12, label %16

12:                                               ; preds = %3
  store i32 0, ptr @create_or_drop_command_generator.list_index, align 4
  %13 = load ptr, ptr %5, align 8
  %14 = call i64 @strlen(ptr noundef %13) #9
  %15 = trunc i64 %14 to i32
  store i32 %15, ptr @create_or_drop_command_generator.string_length, align 4
  br label %16

16:                                               ; preds = %12, %3
  br label %17

17:                                               ; preds = %46, %16
  %18 = load i32, ptr @create_or_drop_command_generator.list_index, align 4
  %19 = add i32 %18, 1
  store i32 %19, ptr @create_or_drop_command_generator.list_index, align 4
  %20 = sext i32 %18 to i64
  %21 = getelementptr inbounds [51 x %struct.pgsql_thing_t], ptr @words_after_create, i64 0, i64 %20
  %22 = getelementptr inbounds nuw %struct.pgsql_thing_t, ptr %21, i32 0, i32 0
  %23 = load ptr, ptr %22, align 16
  store ptr %23, ptr %8, align 8
  %24 = icmp ne ptr %23, null
  br i1 %24, label %25, label %47

25:                                               ; preds = %17
  %26 = load ptr, ptr %8, align 8
  %27 = load ptr, ptr %5, align 8
  %28 = load i32, ptr @create_or_drop_command_generator.string_length, align 4
  %29 = sext i32 %28 to i64
  %30 = call i32 @pg_strncasecmp(ptr noundef %26, ptr noundef %27, i64 noundef %29)
  %31 = icmp eq i32 %30, 0
  br i1 %31, label %32, label %46

32:                                               ; preds = %25
  %33 = load i32, ptr @create_or_drop_command_generator.list_index, align 4
  %34 = sub i32 %33, 1
  %35 = sext i32 %34 to i64
  %36 = getelementptr inbounds [51 x %struct.pgsql_thing_t], ptr @words_after_create, i64 0, i64 %35
  %37 = getelementptr inbounds nuw %struct.pgsql_thing_t, ptr %36, i32 0, i32 5
  %38 = load i32, ptr %37, align 8
  %39 = load i32, ptr %7, align 4
  %40 = and i32 %38, %39
  %41 = icmp ne i32 %40, 0
  br i1 %41, label %46, label %42

42:                                               ; preds = %32
  %43 = load ptr, ptr %8, align 8
  %44 = load ptr, ptr %5, align 8
  %45 = call ptr @pg_strdup_keyword_case(ptr noundef %43, ptr noundef %44)
  store ptr %45, ptr %4, align 8
  store i32 1, ptr %9, align 4
  br label %48

46:                                               ; preds = %32, %25
  br label %17, !llvm.loop !28

47:                                               ; preds = %17
  store ptr null, ptr %4, align 8
  store i32 1, ptr %9, align 4
  br label %48

48:                                               ; preds = %47, %42
  call void @llvm.lifetime.end.p0(i64 8, ptr %8) #8
  %49 = load ptr, ptr %4, align 8
  ret ptr %49
}